; Function Attrs: mustprogress nounwind uwtable
define internal fastcc void @_ZL16filenameToStringB5cxx11RK7QString(ptr dead_on_unwind noalias writable align 8 %0, ptr %.0.val) unnamed_addr #4 personality ptr @__gxx_personality_v0 {
  %2 = alloca %"class.std::allocator.16", align 1
  %3 = alloca %class.QByteArray, align 8
  %4 = icmp eq ptr %.0.val, @_ZN10QArrayData11shared_nullE
  br i1 %4, label %_ZNKR7QString11toLocal8BitEv.exit.i, label %5

5:                                                ; preds = %1
  %6 = getelementptr inbounds i8, ptr %.0.val, i64 16
  %7 = load i64, ptr %6, align 8, !noalias !10
  %8 = getelementptr inbounds i8, ptr %.0.val, i64 %7
  br label %_ZNKR7QString11toLocal8BitEv.exit.i

_ZNKR7QString11toLocal8BitEv.exit.i:              ; preds = %5, %1
  %9 = phi ptr [ %8, %5 ], [ null, %1 ]
  %10 = getelementptr inbounds i8, ptr %.0.val, i64 4
  %11 = load i32, ptr %10, align 4, !noalias !10
  invoke void @_ZN7QString18toLocal8Bit_helperEPK5QChari(ptr dead_on_unwind nonnull writable sret(%class.QByteArray) align 8 %3, ptr noundef %9, i32 noundef %11)
          to label %_ZN5QFile10encodeNameERK7QString.exit unwind label %26

_ZN5QFile10encodeNameERK7QString.exit:            ; preds = %_ZNKR7QString11toLocal8BitEv.exit.i
  call void @llvm.lifetime.start.p0(i64 1, ptr nonnull %2)
  %12 = load ptr, ptr %3, align 8, !noalias !15
  %13 = getelementptr inbounds i8, ptr %12, i64 16
  %14 = load i64, ptr %13, align 8, !noalias !15
  %15 = getelementptr inbounds i8, ptr %12, i64 %14
  %16 = getelementptr inbounds i8, ptr %12, i64 4
  %17 = load i32, ptr %16, align 4, !noalias !15
  %18 = sext i32 %17 to i64
  call void @_ZNSaIcEC1Ev(ptr noundef nonnull align 1 dereferenceable(1) %2) #25, !noalias !15
  invoke void @_ZNSt7__cxx1112basic_stringIcSt11char_traitsIcESaIcEEC1EPKcmRKS3_(ptr noundef nonnull align 8 dereferenceable(32) %0, ptr noundef nonnull %15, i64 noundef %18, ptr noundef nonnull align 1 dereferenceable(1) %2)
          to label %21 unwind label %19

19:                                               ; preds = %_ZN5QFile10encodeNameERK7QString.exit
  %20 = landingpad { ptr, i32 }
          catch ptr null
  call void @_ZNSaIcED1Ev(ptr noundef nonnull align 1 dereferenceable(1) %2) #25
  br label %.body

21:                                               ; preds = %_ZN5QFile10encodeNameERK7QString.exit
  call void @_ZNSaIcED1Ev(ptr noundef nonnull align 1 dereferenceable(1) %2) #25
  call void @llvm.lifetime.end.p0(i64 1, ptr nonnull %2)
  %22 = load ptr, ptr %3, align 8
  %23 = load atomic i32, ptr %22 monotonic, align 4
  switch i32 %23, label %_ZN9QtPrivate8RefCount5derefEv.exit.i [
    i32 0, label %_ZN9QtPrivate8RefCount5derefEv.exit.thread2.i
    i32 -1, label %_ZN10QByteArrayD2Ev.exit
  ]

_ZN9QtPrivate8RefCount5derefEv.exit.i:            ; preds = %21
  %24 = atomicrmw sub ptr %22, i32 1 seq_cst, align 4
  %.not.i = icmp eq i32 %24, 1
  br i1 %.not.i, label %_ZN9QtPrivate8RefCount5derefEv.exit._ZN9QtPrivate8RefCount5derefEv.exit.thread2_crit_edge.i, label %_ZN10QByteArrayD2Ev.exit

_ZN9QtPrivate8RefCount5derefEv.exit._ZN9QtPrivate8RefCount5derefEv.exit.thread2_crit_edge.i: ; preds = %_ZN9QtPrivate8RefCount5derefEv.exit.i
  %.pre.i = load ptr, ptr %3, align 8
  br label %_ZN9QtPrivate8RefCount5derefEv.exit.thread2.i

_ZN9QtPrivate8RefCount5derefEv.exit.thread2.i:    ; preds = %_ZN9QtPrivate8RefCount5derefEv.exit._ZN9QtPrivate8RefCount5derefEv.exit.thread2_crit_edge.i, %21
  %25 = phi ptr [ %.pre.i, %_ZN9QtPrivate8RefCount5derefEv.exit._ZN9QtPrivate8RefCount5derefEv.exit.thread2_crit_edge.i ], [ %22, %21 ]
  call void @_ZN10QArrayData10deallocateEPS_mm(ptr noundef %25, i64 noundef 1, i64 noundef 8) #25
  br label %_ZN10QByteArrayD2Ev.exit

_ZN10QByteArrayD2Ev.exit:                         ; preds = %21, %_ZN9QtPrivate8RefCount5derefEv.exit.i, %_ZN9QtPrivate8RefCount5derefEv.exit.thread2.i
  ret void

26:                                               ; preds = %_ZNKR7QString11toLocal8BitEv.exit.i
  %27 = landingpad { ptr, i32 }
          catch ptr null
  br label %.body

.body:                                            ; preds = %19, %26
  %eh.lpad-body = phi { ptr, i32 } [ %27, %26 ], [ %20, %19 ]
  %28 = extractvalue { ptr, i32 } %eh.lpad-body, 0
  call void @__clang_call_terminate(ptr %28) #26
  unreachable
}